target datalayout = "e-m:e-p270:32:32-p271:32:32-p272:64:64-i64:64-i128:128-f80:128-n8:16:32:64-S128"
target triple = "x86_64-pc-linux-gnu"

@.str.1 = private unnamed_addr constant [14 x i8] c"foreigncmds.c\00", align 1
@.str.5 = private unnamed_addr constant [48 x i8] c"foreign-data wrapper with OID %u does not exist\00", align 1
@__func__.AlterForeignDataWrapperOwner_oid = private unnamed_addr constant [33 x i8] c"AlterForeignDataWrapperOwner_oid\00", align 1

; Function Attrs: inlinehint nounwind uwtable
define internal i64 @ObjectIdGetDatum(i32 noundef %0) #6 {
  %2 = alloca i32, align 4
  store i32 %0, ptr %2, align 4
  %3 = load i32, ptr %2, align 4
  %4 = zext i32 %3 to i64
  ret i64 %4
}

; Function Attrs: nounwind uwtable
define dso_local void @AlterForeignDataWrapperOwner_oid(i32 noundef %0, i32 noundef %1) #0 {
  %3 = alloca i32, align 4
  %4 = alloca i32, align 4
  %5 = alloca ptr, align 8
  %6 = alloca ptr, align 8
  store i32 %0, ptr %3, align 4
  store i32 %1, ptr %4, align 4
  call void @llvm.lifetime.start.p0(i64 8, ptr %5) #9
  call void @llvm.lifetime.start.p0(i64 8, ptr %6) #9
  %7 = call ptr @table_open(i32 noundef 2328, i32 noundef 3)
  store ptr %7, ptr %6, align 8
  %8 = load i32, ptr %3, align 4
  %9 = call i64 @ObjectIdGetDatum(i32 noundef %8)
  %10 = call ptr @SearchSysCacheCopy(i32 noundef 30, i64 noundef %9, i64 noundef 0, i64 noundef 0, i64 noundef 0)
  store ptr %10, ptr %5, align 8
  %11 = load ptr, ptr %5, align 8
  %12 = icmp ne ptr %11, null
  br i1 %12, label %26, label %13

13:                                               ; preds = %2
  br label %14

14:                                               ; preds = %13
  br i1 true, label %15, label %17

15:                                               ; preds = %14
  %16 = call zeroext i1 @errstart_cold(i32 noundef 21, ptr noundef null) #11
  br i1 %16, label %19, label %23

17:                                               ; preds = %14
  %18 = call zeroext i1 @errstart(i32 noundef 21, ptr noundef null)
  br i1 %18, label %19, label %23

19:                                               ; preds = %17, %15
  %20 = call i32 @errcode(i32 noundef 67137668)
  %21 = load i32, ptr %3, align 4
  %22 = call i32 (ptr, ...) @errmsg(ptr noundef @.str.5, i32 noundef %21)
  call void @errfinish(ptr noundef @.str.1, i32 noundef 325, ptr noundef @__func__.AlterForeignDataWrapperOwner_oid)
  br label %23

23:                                               ; preds = %19, %17, %15
  unreachable

24:                                               ; No predecessors!
  br label %25

25:                                               ; preds = %24
  br label %26

26:                                               ; preds = %25, %2
  %27 = load ptr, ptr %6, align 8
  %28 = load ptr, ptr %5, align 8
  %29 = load i32, ptr %4, align 4
  call void @AlterForeignDataWrapperOwner_internal(ptr noundef %27, ptr noundef %28, i32 noundef %29)
  %30 = load ptr, ptr %5, align 8
  call void @heap_freetuple(ptr noundef %30)
  %31 = load ptr, ptr %6, align 8
  call void @table_close(ptr noundef %31, i32 noundef 3)
  call void @llvm.lifetime.end.p0(i64 8, ptr %6) #9
  call void @llvm.lifetime.end.p0(i64 8, ptr %5) #9
  ret void
}