; Function Attrs: nounwind uwtable
define dso_local void @AlterForeignDataWrapperOwner_oid(i32 noundef %0, i32 noundef %1) local_unnamed_addr #0 {
  %3 = tail call ptr @table_open(i32 noundef 2328, i32 noundef 3) #9
  %4 = zext i32 %0 to i64
  %5 = tail call ptr @SearchSysCacheCopy(i32 noundef 30, i64 noundef %4, i64 noundef 0, i64 noundef 0, i64 noundef 0) #9
  %.not = icmp eq ptr %5, null
  br i1 %.not, label %6, label %10

6:                                                ; preds = %2
  %7 = tail call zeroext i1 @errstart_cold(i32 noundef 21, ptr noundef null) #11
  tail call void @llvm.assume(i1 %7)
  %8 = tail call i32 @errcode(i32 noundef 67137668) #9
  %9 = tail call i32 (ptr, ...) @errmsg(ptr noundef nonnull @.str.5, i32 noundef %0) #9
  tail call void @errfinish(ptr noundef nonnull @.str.1, i32 noundef 325, ptr noundef nonnull @__func__.AlterForeignDataWrapperOwner_oid) #9
  unreachable

10:                                               ; preds = %2
  tail call fastcc void @AlterForeignDataWrapperOwner_internal(ptr noundef %3, ptr noundef %5, i32 noundef %1)
  tail call void @heap_freetuple(ptr noundef nonnull %5) #9
  tail call void @table_close(ptr noundef %3, i32 noundef 3) #9
  ret void
}